(dp1
I18
(dp2
S'becameSuitTime'
p3
F1441262060.2260001
sS'savedBy'
p4
NsS'track'
p5
S'l'
sS'numFloors'
p6
I4
sS'difficulty'
p7
I6
sS'state'
p8
S'suit'
p9
sS'block'
p10
I18
ssI34
(dp11
g3
F1441262106.825
sg4
Nsg5
S's'
sg6
I4
sg7
I6
sg8
S'cogdo'
p12
sg10
I34
ssI26
(dp13
g3
F1441262194.4360001
sg4
Nsg5
S's'
sg6
I3
sg7
I6
sg8
g12
sg10
I26
ss.