(dp1
I25
(dp2
S'becameSuitTime'
p3
F1441262090.6919999
sS'savedBy'
p4
NsS'track'
p5
S'm'
sS'numFloors'
p6
I1
sS'difficulty'
p7
I1
sS'state'
p8
S'suit'
p9
sS'block'
p10
I25
ssI31
(dp11
g3
F1441262288.421
sg4
Nsg5
S'm'
sg6
I2
sg7
I3
sg8
g9
sg10
I31
ssI12
(dp12
g3
F1441262198.8399999
sg4
Nsg5
S'm'
sg6
I1
sg7
I1
sg8
g9
sg10
I12
ssI52
(dp13
g3
F1441262189.6500001
sg4
Nsg5
S'm'
sg6
I2
sg7
I1
sg8
g9
sg10
I52
ssI15
(dp14
g3
F1441262126.2939999
sg4
Nsg5
S's'
sg6
I1
sg7
I1
sg8
g9
sg10
I15
ss.