(dp1
I17
(dp2
S'becameSuitTime'
p3
F1441262353.6029999
sS'savedBy'
p4
NsS'track'
p5
S'm'
sS'numFloors'
p6
I4
sS'difficulty'
p7
I4
sS'state'
p8
S'suit'
p9
sS'block'
p10
I17
ssI26
(dp11
g3
F1441262220.6949999
sg4
Nsg5
S'm'
sg6
I1
sg7
I2
sg8
g9
sg10
I26
ss.