(dp1
I48
(dp2
S'becameSuitTime'
p3
F1441262392.7839999
sS'savedBy'
p4
NsS'track'
p5
S'l'
sS'numFloors'
p6
I1
sS'difficulty'
p7
I0
sS'state'
p8
S'suit'
p9
sS'block'
p10
I48
ssI33
(dp11
g3
F1441262355.836
sg4
Nsg5
S'l'
sg6
I1
sg7
I2
sg8
g9
sg10
I33
ssI35
(dp12
g3
F1441262178.2869999
sg4
Nsg5
S'l'
sg6
I2
sg7
I2
sg8
g9
sg10
I35
ssI43
(dp13
g3
F1441262560.5090001
sg4
Nsg5
S'l'
sg6
I1
sg7
I2
sg8
g9
sg10
I43
ss.